target datalayout = "e-m:e-p270:32:32-p271:32:32-p272:64:64-i64:64-i128:128-f80:128-n8:16:32:64-S128"
target triple = "x86_64-pc-linux-gnu"

%struct.AVFilterContext = type { ptr, ptr, ptr, ptr, ptr, i32, ptr, ptr, i32, ptr, ptr, i32, i32, ptr, ptr, ptr, ptr, i32, ptr, i32, i32 }
%struct.CompensationDelayContext = type { ptr, i32, i32, i32, double, double, i32, i32, i32, i32, ptr }
%struct.AVFilterLink = type { ptr, ptr, ptr, ptr, i32, i32, i32, i32, %struct.AVRational, i32, i32, i32, %struct.AVChannelLayout, %struct.AVRational, ptr, i32, %struct.AVFilterFormatsConfig, %struct.AVFilterFormatsConfig }
%struct.AVChannelLayout = type { i32, i32, %union.anon.1, ptr }
%union.anon.1 = type { i64 }
%struct.AVRational = type { i32, i32 }
%struct.AVFilterFormatsConfig = type { ptr, ptr, ptr, ptr, ptr }

; Function Attrs: nounwind uwtable
define internal i32 @process_command(ptr noundef %0, ptr noundef %1, ptr noundef %2, ptr noundef %3, i32 noundef %4, i32 noundef %5) #1 {
  %7 = alloca i32, align 4
  %8 = alloca ptr, align 8
  %9 = alloca ptr, align 8
  %10 = alloca ptr, align 8
  %11 = alloca ptr, align 8
  %12 = alloca i32, align 4
  %13 = alloca i32, align 4
  %14 = alloca ptr, align 8
  %15 = alloca ptr, align 8
  %16 = alloca i32, align 4
  %17 = alloca i32, align 4
  store ptr %0, ptr %8, align 8, !tbaa !4
  store ptr %1, ptr %9, align 8, !tbaa !24
  store ptr %2, ptr %10, align 8, !tbaa !24
  store ptr %3, ptr %11, align 8, !tbaa !24
  store i32 %4, ptr %12, align 4, !tbaa !25
  store i32 %5, ptr %13, align 4, !tbaa !25
  call void @llvm.lifetime.start.p0(i64 8, ptr %14) #5
  %18 = load ptr, ptr %8, align 8, !tbaa !4
  %19 = getelementptr inbounds nuw %struct.AVFilterContext, ptr %18, i32 0, i32 9
  %20 = load ptr, ptr %19, align 8, !tbaa !9
  store ptr %20, ptr %14, align 8, !tbaa !22
  call void @llvm.lifetime.start.p0(i64 8, ptr %15) #5
  %21 = load ptr, ptr %8, align 8, !tbaa !4
  %22 = getelementptr inbounds nuw %struct.AVFilterContext, ptr %21, i32 0, i32 7
  %23 = load ptr, ptr %22, align 8, !tbaa !26
  %24 = getelementptr inbounds ptr, ptr %23, i64 0
  %25 = load ptr, ptr %24, align 8, !tbaa !27
  store ptr %25, ptr %15, align 8, !tbaa !27
  call void @llvm.lifetime.start.p0(i64 4, ptr %16) #5
  %26 = load ptr, ptr %8, align 8, !tbaa !4
  %27 = load ptr, ptr %9, align 8, !tbaa !24
  %28 = load ptr, ptr %10, align 8, !tbaa !24
  %29 = load ptr, ptr %11, align 8, !tbaa !24
  %30 = load i32, ptr %12, align 4, !tbaa !25
  %31 = load i32, ptr %13, align 4, !tbaa !25
  %32 = call i32 @ff_filter_process_command(ptr noundef %26, ptr noundef %27, ptr noundef %28, ptr noundef %29, i32 noundef %30, i32 noundef %31)
  store i32 %32, ptr %16, align 4, !tbaa !25
  %33 = load i32, ptr %16, align 4, !tbaa !25
  %34 = icmp slt i32 %33, 0
  br i1 %34, label %35, label %37

35:                                               ; preds = %6
  %36 = load i32, ptr %16, align 4, !tbaa !25
  store i32 %36, ptr %7, align 4
  store i32 1, ptr %17, align 4
  br label %74

37:                                               ; preds = %6
  %38 = load ptr, ptr %14, align 8, !tbaa !22
  %39 = getelementptr inbounds nuw %struct.CompensationDelayContext, ptr %38, i32 0, i32 3
  %40 = load i32, ptr %39, align 8, !tbaa !29
  %41 = sitofp i32 %40 to double
  %42 = load ptr, ptr %14, align 8, !tbaa !22
  %43 = getelementptr inbounds nuw %struct.CompensationDelayContext, ptr %42, i32 0, i32 2
  %44 = load i32, ptr %43, align 4, !tbaa !33
  %45 = sitofp i32 %44 to double
  %46 = fmul nsz double %45, 1.000000e+00
  %47 = call nsz double @llvm.fmuladd.f64(double %41, double 1.000000e+02, double %46)
  %48 = load ptr, ptr %14, align 8, !tbaa !22
  %49 = getelementptr inbounds nuw %struct.CompensationDelayContext, ptr %48, i32 0, i32 1
  %50 = load i32, ptr %49, align 8, !tbaa !34
  %51 = sitofp i32 %50 to double
  %52 = call nsz double @llvm.fmuladd.f64(double %51, double 1.000000e-01, double %47)
  %53 = load ptr, ptr %14, align 8, !tbaa !22
  %54 = getelementptr inbounds nuw %struct.CompensationDelayContext, ptr %53, i32 0, i32 6
  %55 = load i32, ptr %54, align 8, !tbaa !35
  %56 = sitofp i32 %55 to double
  %57 = fadd nsz double %56, 2.731500e+02
  %58 = fdiv nsz double %57, 2.731500e+02
  %59 = call nsz double @llvm.sqrt.f64(double %58)
  %60 = fmul nsz double 6.439500e+02, %59
  %61 = fmul nsz double 1.853250e+00, %60
  %62 = fmul nsz double %61, 1.000000e+05
  %63 = fdiv nsz double %62, 3.600000e+03
  %64 = fdiv nsz double 1.000000e+00, %63
  %65 = fmul nsz double %52, %64
  %66 = load ptr, ptr %15, align 8, !tbaa !27
  %67 = getelementptr inbounds nuw %struct.AVFilterLink, ptr %66, i32 0, i32 11
  %68 = load i32, ptr %67, align 8, !tbaa !36
  %69 = sitofp i32 %68 to double
  %70 = fmul nsz double %65, %69
  %71 = fptoui double %70 to i32
  %72 = load ptr, ptr %14, align 8, !tbaa !22
  %73 = getelementptr inbounds nuw %struct.CompensationDelayContext, ptr %72, i32 0, i32 7
  store i32 %71, ptr %73, align 4, !tbaa !44
  store i32 0, ptr %7, align 4
  store i32 1, ptr %17, align 4
  br label %74

74:                                               ; preds = %37, %35
  call void @llvm.lifetime.end.p0(i64 4, ptr %16) #5
  call void @llvm.lifetime.end.p0(i64 8, ptr %15) #5
  call void @llvm.lifetime.end.p0(i64 8, ptr %14) #5
  %75 = load i32, ptr %7, align 4
  ret i32 %75
}