; Function Attrs: nounwind uwtable
define internal range(i32 -2147483648, 1) i32 @process_command(ptr noundef %0, ptr noundef %1, ptr noundef %2, ptr noundef %3, i32 noundef %4, i32 noundef %5) #1 {
  %7 = getelementptr inbounds nuw i8, ptr %0, i64 72
  %8 = load ptr, ptr %7, align 8, !tbaa !4
  %9 = getelementptr inbounds nuw i8, ptr %0, i64 56
  %10 = load ptr, ptr %9, align 8, !tbaa !20
  %11 = load ptr, ptr %10, align 8, !tbaa !21
  %12 = tail call i32 @ff_filter_process_command(ptr noundef %0, ptr noundef %1, ptr noundef %2, ptr noundef %3, i32 noundef %4, i32 noundef %5) #5
  %13 = icmp slt i32 %12, 0
  br i1 %13, label %44, label %14

14:                                               ; preds = %6
  %15 = getelementptr inbounds nuw i8, ptr %8, i64 16
  %16 = load i32, ptr %15, align 8, !tbaa !23
  %17 = sitofp i32 %16 to double
  %18 = getelementptr inbounds nuw i8, ptr %8, i64 12
  %19 = load i32, ptr %18, align 4, !tbaa !27
  %20 = sitofp i32 %19 to double
  %21 = tail call nsz double @llvm.fmuladd.f64(double %17, double 1.000000e+02, double %20)
  %22 = getelementptr inbounds nuw i8, ptr %8, i64 8
  %23 = load i32, ptr %22, align 8, !tbaa !28
  %24 = sitofp i32 %23 to double
  %25 = tail call nsz double @llvm.fmuladd.f64(double %24, double 1.000000e-01, double %21)
  %26 = getelementptr inbounds nuw i8, ptr %8, i64 40
  %27 = load i32, ptr %26, align 8, !tbaa !29
  %28 = sitofp i32 %27 to double
  %29 = fadd nsz double %28, 2.731500e+02
  %30 = fdiv nsz double %29, 2.731500e+02
  %31 = tail call nsz double @llvm.sqrt.f64(double %30)
  %32 = fmul nsz double %31, 6.439500e+02
  %33 = fmul nsz double %32, 1.853250e+00
  %34 = fmul nsz double %33, 1.000000e+05
  %35 = fdiv nsz double %34, 3.600000e+03
  %36 = fdiv nsz double 1.000000e+00, %35
  %37 = fmul nsz double %25, %36
  %38 = getelementptr inbounds nuw i8, ptr %11, i64 64
  %39 = load i32, ptr %38, align 8, !tbaa !30
  %40 = sitofp i32 %39 to double
  %41 = fmul nsz double %37, %40
  %42 = fptoui double %41 to i32
  %43 = getelementptr inbounds nuw i8, ptr %8, i64 44
  store i32 %42, ptr %43, align 4, !tbaa !39
  br label %44

44:                                               ; preds = %6, %14
  %.0 = phi i32 [ 0, %14 ], [ %12, %6 ]
  ret i32 %.0
}